target datalayout = "e-m:e-p270:32:32-p271:32:32-p272:64:64-i64:64-i128:128-f80:128-n8:16:32:64-S128"
target triple = "x86_64-pc-linux-gnu"

%struct.AVProbeData = type { ptr, ptr, i32, ptr }

@.str.2 = private unnamed_addr constant [4 x i8] c"MSF\00", align 1

; Function Attrs: alwaysinline nounwind willreturn memory(none) uwtable
define internal i32 @av_bswap32(i32 noundef %0) #2 {
  %2 = alloca i32, align 4
  store i32 %0, ptr %2, align 4, !tbaa !43
  %3 = load i32, ptr %2, align 4, !tbaa !43
  %4 = shl i32 %3, 8
  %5 = and i32 %4, 65280
  %6 = load i32, ptr %2, align 4, !tbaa !43
  %7 = lshr i32 %6, 8
  %8 = and i32 %7, 255
  %9 = or i32 %5, %8
  %10 = shl i32 %9, 16
  %11 = load i32, ptr %2, align 4, !tbaa !43
  %12 = lshr i32 %11, 16
  %13 = shl i32 %12, 8
  %14 = and i32 %13, 65280
  %15 = load i32, ptr %2, align 4, !tbaa !43
  %16 = lshr i32 %15, 16
  %17 = lshr i32 %16, 8
  %18 = and i32 %17, 255
  %19 = or i32 %14, %18
  %20 = or i32 %10, %19
  ret i32 %20
}

; Function Attrs: nounwind uwtable
define internal i32 @msf_probe(ptr noundef %0) #0 {
  %2 = alloca i32, align 4
  %3 = alloca ptr, align 8
  store ptr %0, ptr %3, align 8, !tbaa !4
  %4 = load ptr, ptr %3, align 8, !tbaa !4
  %5 = getelementptr inbounds nuw %struct.AVProbeData, ptr %4, i32 0, i32 1
  %6 = load ptr, ptr %5, align 8, !tbaa !9
  %7 = call i32 @memcmp(ptr noundef %6, ptr noundef @.str.2, i64 noundef 3) #7
  %8 = icmp ne i32 %7, 0
  br i1 %8, label %9, label %10

9:                                                ; preds = %1
  store i32 0, ptr %2, align 4
  br label %38

10:                                               ; preds = %1
  %11 = load ptr, ptr %3, align 8, !tbaa !4
  %12 = getelementptr inbounds nuw %struct.AVProbeData, ptr %11, i32 0, i32 1
  %13 = load ptr, ptr %12, align 8, !tbaa !9
  %14 = getelementptr inbounds i8, ptr %13, i64 8
  %15 = load i32, ptr %14, align 1, !tbaa !13
  %16 = call i32 @av_bswap32(i32 noundef %15) #8
  %17 = icmp ule i32 %16, 0
  br i1 %17, label %18, label %19

18:                                               ; preds = %10
  store i32 0, ptr %2, align 4
  br label %38

19:                                               ; preds = %10
  %20 = load ptr, ptr %3, align 8, !tbaa !4
  %21 = getelementptr inbounds nuw %struct.AVProbeData, ptr %20, i32 0, i32 1
  %22 = load ptr, ptr %21, align 8, !tbaa !9
  %23 = getelementptr inbounds i8, ptr %22, i64 16
  %24 = load i32, ptr %23, align 1, !tbaa !13
  %25 = call i32 @av_bswap32(i32 noundef %24) #8
  %26 = icmp ule i32 %25, 0
  br i1 %26, label %27, label %28

27:                                               ; preds = %19
  store i32 0, ptr %2, align 4
  br label %38

28:                                               ; preds = %19
  %29 = load ptr, ptr %3, align 8, !tbaa !4
  %30 = getelementptr inbounds nuw %struct.AVProbeData, ptr %29, i32 0, i32 1
  %31 = load ptr, ptr %30, align 8, !tbaa !9
  %32 = getelementptr inbounds i8, ptr %31, i64 4
  %33 = load i32, ptr %32, align 1, !tbaa !13
  %34 = call i32 @av_bswap32(i32 noundef %33) #8
  %35 = icmp ugt i32 %34, 16
  br i1 %35, label %36, label %37

36:                                               ; preds = %28
  store i32 20, ptr %2, align 4
  br label %38

37:                                               ; preds = %28
  store i32 66, ptr %2, align 4
  br label %38

38:                                               ; preds = %37, %36, %27, %18, %9
  %39 = load i32, ptr %2, align 4
  ret i32 %39
}