; Function Attrs: mustprogress nofree norecurse nounwind willreturn memory(read, inaccessiblemem: none) uwtable
define internal range(i32 0, 67) i32 @msf_probe(ptr noundef readonly captures(none) %0) #0 {
  %2 = getelementptr inbounds nuw i8, ptr %0, i64 8
  %3 = load ptr, ptr %2, align 8, !tbaa !4
  %bcmp = tail call i32 @bcmp(ptr noundef nonnull dereferenceable(3) %3, ptr noundef nonnull dereferenceable(3) @.str.2, i64 3)
  %.not = icmp eq i32 %bcmp, 0
  br i1 %.not, label %4, label %17

4:                                                ; preds = %1
  %5 = getelementptr inbounds nuw i8, ptr %3, i64 8
  %6 = load i32, ptr %5, align 1, !tbaa !11
  %7 = icmp eq i32 %6, 0
  br i1 %7, label %17, label %8

8:                                                ; preds = %4
  %9 = getelementptr inbounds nuw i8, ptr %3, i64 16
  %10 = load i32, ptr %9, align 1, !tbaa !11
  %11 = icmp eq i32 %10, 0
  br i1 %11, label %17, label %12

12:                                               ; preds = %8
  %13 = getelementptr inbounds nuw i8, ptr %3, i64 4
  %14 = load i32, ptr %13, align 1, !tbaa !11
  %15 = tail call i32 @llvm.bswap.i32(i32 %14)
  %16 = icmp ugt i32 %15, 16
  %. = select i1 %16, i32 20, i32 66
  br label %17

17:                                               ; preds = %12, %8, %4, %1
  %.0 = phi i32 [ 0, %1 ], [ 0, %4 ], [ 0, %8 ], [ %., %12 ]
  ret i32 %.0
}